; Function Attrs: mustprogress nounwind uwtable
define dso_local void @_ZNK4llvm3pdb9PDBSymbol11defaultDumpERNS_11raw_ostreamEiNS0_16PdbSymbolIdFieldES4_(ptr nocapture noundef nonnull readonly align 8 dereferenceable(32) %0, ptr noundef nonnull align 8 dereferenceable(48) %1, i32 noundef %2, i32 noundef %3, i32 noundef %4) local_unnamed_addr #2 align 2 {
  %6 = getelementptr inbounds nuw i8, ptr %0, i64 24
  %7 = load ptr, ptr %6, align 8
  %8 = load ptr, ptr %7, align 8
  %9 = getelementptr inbounds i8, ptr %8, i64 16
  %10 = load ptr, ptr %9, align 8
  tail call void %10(ptr noundef nonnull align 8 dereferenceable(8) %7, ptr noundef nonnull align 8 dereferenceable(48) %1, i32 noundef %2, i32 noundef %3, i32 noundef %4) #12
  ret void
}